; Function Attrs: nounwind uwtable
define range(i32 0, 3) i32 @png_colorspace_set_chromaticities(ptr noalias noundef %0, ptr noalias nocapture noundef %1, ptr nocapture noundef readonly %2, i32 noundef %3) local_unnamed_addr #0 {
  %5 = alloca %struct.png_XYZ, align 4
  %6 = call fastcc i32 @png_colorspace_check_xy(ptr noundef nonnull %5, ptr noundef %2)
  switch i32 %6, label %32 [
    i32 0, label %7
    i32 1, label %28
  ]

7:                                                ; preds = %4
  tail call void @llvm.experimental.noalias.scope.decl(metadata !37)
  %8 = getelementptr inbounds i8, ptr %1, i64 74
  %9 = load i16, ptr %8, align 2, !alias.scope !37, !noalias !40
  %.not.i = icmp sgt i16 %9, -1
  br i1 %.not.i, label %10, label %png_colorspace_set_xy_and_XYZ.exit

10:                                               ; preds = %7
  %11 = icmp sgt i32 %3, 1
  %12 = and i16 %9, 2
  %.not17.i = icmp eq i16 %12, 0
  %or.cond.i = or i1 %11, %.not17.i
  br i1 %or.cond.i, label %21, label %13

13:                                               ; preds = %10
  %14 = getelementptr inbounds i8, ptr %1, i64 4
  %15 = tail call fastcc i32 @png_colorspace_endpoints_match(ptr noundef readonly %2, ptr noundef nonnull %14, i32 noundef 100), !noalias !40
  %16 = icmp eq i32 %15, 0
  br i1 %16, label %17, label %19

17:                                               ; preds = %13
  %18 = or disjoint i16 %9, -32768
  store i16 %18, ptr %8, align 2, !alias.scope !37, !noalias !40
  tail call void @png_benign_error(ptr noundef %0, ptr noundef nonnull @.str.71) #29, !noalias !37
  br label %png_colorspace_set_xy_and_XYZ.exit

19:                                               ; preds = %13
  %20 = icmp eq i32 %3, 0
  br i1 %20, label %png_colorspace_set_xy_and_XYZ.exit, label %21

21:                                               ; preds = %19, %10
  %22 = getelementptr inbounds i8, ptr %1, i64 4
  tail call void @llvm.memcpy.p0.p0.i64(ptr noundef nonnull align 4 dereferenceable(32) %22, ptr noundef nonnull readonly align 4 dereferenceable(32) %2, i64 32, i1 false), !noalias !40
  %23 = getelementptr inbounds i8, ptr %1, i64 36
  call void @llvm.memcpy.p0.p0.i64(ptr noundef nonnull align 4 dereferenceable(36) %23, ptr noundef nonnull readonly align 4 dereferenceable(36) %5, i64 36, i1 false), !noalias !40
  %24 = tail call fastcc i32 @png_colorspace_endpoints_match(ptr noundef readonly %2, ptr noundef nonnull @sRGB_xy, i32 noundef 1000), !noalias !42
  %.not18.i = icmp eq i32 %24, 0
  %25 = and i16 %9, 32701
  %26 = or disjoint i16 %25, 2
  %27 = or i16 %9, 66
  %storemerge.i = select i1 %.not18.i, i16 %26, i16 %27
  store i16 %storemerge.i, ptr %8, align 2, !alias.scope !37, !noalias !40
  br label %png_colorspace_set_xy_and_XYZ.exit

28:                                               ; preds = %4
  %29 = getelementptr inbounds i8, ptr %1, i64 74
  %30 = load i16, ptr %29, align 2
  %31 = or i16 %30, -32768
  store i16 %31, ptr %29, align 2
  tail call void @png_benign_error(ptr noundef %0, ptr noundef nonnull @.str.22) #29
  br label %png_colorspace_set_xy_and_XYZ.exit

32:                                               ; preds = %4
  %33 = getelementptr inbounds i8, ptr %1, i64 74
  %34 = load i16, ptr %33, align 2
  %35 = or i16 %34, -32768
  store i16 %35, ptr %33, align 2
  tail call void @png_error(ptr noundef %0, ptr noundef nonnull @.str.23) #27
  unreachable

png_colorspace_set_xy_and_XYZ.exit:               ; preds = %21, %19, %17, %7, %28
  %.0 = phi i32 [ 0, %28 ], [ 0, %17 ], [ 2, %21 ], [ 0, %7 ], [ 1, %19 ]
  ret i32 %.0
}